target datalayout = "e-m:e-p270:32:32-p271:32:32-p272:64:64-i64:64-i128:128-f80:128-n8:16:32:64-S128"
target triple = "x86_64-pc-linux-gnu"

%struct.preference = type { ptr, ptr, ptr, i32, i32, i32, %union.anon, %union.anon.0, %union.anon.1, %union.anon.2, %struct.pref_custom_cbs, ptr, ptr }
%union.anon = type { ptr }
%union.anon.0 = type { ptr }
%union.anon.1 = type { ptr }
%union.anon.2 = type { %struct.anon }
%struct.anon = type { ptr, i8 }
%struct.pref_custom_cbs = type { ptr, ptr, ptr, ptr, ptr, ptr, ptr }
%struct.pref_module = type { ptr, ptr, ptr, ptr, ptr, ptr, ptr, ptr, i32, i32, i8, i8, i32 }
%struct._fmt_data = type { ptr, i32, ptr, i32, i8, i8 }
%struct.find_pref_arg_t = type { ptr, ptr, ptr }
%struct._GList = type { ptr, ptr, ptr }

@gui_column_module = internal global ptr null, align 8
@.str.134 = private unnamed_addr constant [14 x i8] c"column.number\00", align 1

; Function Attrs: null_pointer_is_valid sspstrong uwtable
define internal ptr @prefs_find_preference_with_submodule(ptr noundef %0, ptr noundef %1, ptr noundef %2) #1 {
  %4 = alloca ptr, align 8
  %5 = alloca ptr, align 8
  %6 = alloca ptr, align 8
  %7 = alloca ptr, align 8
  %8 = alloca %struct.find_pref_arg_t, align 8
  %9 = alloca ptr, align 8
  %10 = alloca i32, align 4
  store ptr %0, ptr %5, align 8
  store ptr %1, ptr %6, align 8
  store ptr %2, ptr %7, align 8
  call void @llvm.lifetime.start.p0(i64 24, ptr %8) #17
  call void @llvm.lifetime.start.p0(i64 8, ptr %9) #17
  %11 = load ptr, ptr %5, align 8
  %12 = icmp eq ptr %11, null
  br i1 %12, label %13, label %14

13:                                               ; preds = %3
  store ptr null, ptr %4, align 8
  store i32 1, ptr %10, align 4
  br label %62

14:                                               ; preds = %3
  %15 = load ptr, ptr %5, align 8
  %16 = getelementptr inbounds nuw %struct.pref_module, ptr %15, i32 0, i32 5
  %17 = load ptr, ptr %16, align 8
  %18 = load ptr, ptr %6, align 8
  %19 = call ptr @g_list_find_custom(ptr noundef %17, ptr noundef %18, ptr noundef @preference_match)
  store ptr %19, ptr %9, align 8
  %20 = getelementptr inbounds nuw %struct.find_pref_arg_t, ptr %8, i32 0, i32 2
  store ptr null, ptr %20, align 8
  %21 = load ptr, ptr %9, align 8
  %22 = icmp eq ptr %21, null
  br i1 %22, label %23, label %39

23:                                               ; preds = %14
  %24 = getelementptr inbounds nuw %struct.find_pref_arg_t, ptr %8, i32 0, i32 0
  store ptr null, ptr %24, align 8
  %25 = load ptr, ptr %5, align 8
  %26 = getelementptr inbounds nuw %struct.pref_module, ptr %25, i32 0, i32 7
  %27 = load ptr, ptr %26, align 8
  %28 = icmp ne ptr %27, null
  br i1 %28, label %29, label %36

29:                                               ; preds = %23
  %30 = load ptr, ptr %6, align 8
  %31 = getelementptr inbounds nuw %struct.find_pref_arg_t, ptr %8, i32 0, i32 1
  store ptr %30, ptr %31, align 8
  %32 = load ptr, ptr %5, align 8
  %33 = getelementptr inbounds nuw %struct.pref_module, ptr %32, i32 0, i32 7
  %34 = load ptr, ptr %33, align 8
  %35 = call zeroext i1 @wmem_tree_foreach(ptr noundef %34, ptr noundef @module_find_pref_cb, ptr noundef %8)
  br label %36

36:                                               ; preds = %29, %23
  %37 = getelementptr inbounds nuw %struct.find_pref_arg_t, ptr %8, i32 0, i32 0
  %38 = load ptr, ptr %37, align 8
  store ptr %38, ptr %9, align 8
  br label %39

39:                                               ; preds = %36, %14
  %40 = load ptr, ptr %9, align 8
  %41 = icmp eq ptr %40, null
  br i1 %41, label %42, label %43

42:                                               ; preds = %39
  store ptr null, ptr %4, align 8
  store i32 1, ptr %10, align 4
  br label %62

43:                                               ; preds = %39
  %44 = load ptr, ptr %7, align 8
  %45 = icmp ne ptr %44, null
  br i1 %45, label %46, label %58

46:                                               ; preds = %43
  %47 = getelementptr inbounds nuw %struct.find_pref_arg_t, ptr %8, i32 0, i32 2
  %48 = load ptr, ptr %47, align 8
  %49 = icmp ne ptr %48, null
  br i1 %49, label %50, label %53

50:                                               ; preds = %46
  %51 = getelementptr inbounds nuw %struct.find_pref_arg_t, ptr %8, i32 0, i32 2
  %52 = load ptr, ptr %51, align 8
  br label %55

53:                                               ; preds = %46
  %54 = load ptr, ptr %5, align 8
  br label %55

55:                                               ; preds = %53, %50
  %56 = phi ptr [ %52, %50 ], [ %54, %53 ]
  %57 = load ptr, ptr %7, align 8
  store ptr %56, ptr %57, align 8
  br label %58

58:                                               ; preds = %55, %43
  %59 = load ptr, ptr %9, align 8
  %60 = getelementptr inbounds nuw %struct._GList, ptr %59, i32 0, i32 0
  %61 = load ptr, ptr %60, align 8
  store ptr %61, ptr %4, align 8
  store i32 1, ptr %10, align 4
  br label %62

62:                                               ; preds = %58, %42, %13
  call void @llvm.lifetime.end.p0(i64 8, ptr %9) #17
  call void @llvm.lifetime.end.p0(i64 24, ptr %8) #17
  %63 = load ptr, ptr %4, align 8
  ret ptr %63
}

; Function Attrs: nounwind null_pointer_is_valid sspstrong uwtable
define internal void @column_num_reset_cb(ptr noundef %0) #0 {
  %2 = alloca ptr, align 8
  store ptr %0, ptr %2, align 8
  %3 = load ptr, ptr %2, align 8
  %4 = getelementptr inbounds nuw %struct.preference, ptr %3, i32 0, i32 8
  %5 = load i32, ptr %4, align 8
  %6 = load ptr, ptr %2, align 8
  %7 = getelementptr inbounds nuw %struct.preference, ptr %6, i32 0, i32 6
  %8 = load ptr, ptr %7, align 8
  store i32 %5, ptr %8, align 4
  ret void
}

; Function Attrs: null_pointer_is_valid sspstrong uwtable
define ptr @prefs_find_preference(ptr noundef %0, ptr noundef %1) #1 {
  %3 = alloca ptr, align 8
  %4 = alloca ptr, align 8
  store ptr %0, ptr %3, align 8
  store ptr %1, ptr %4, align 8
  %5 = load ptr, ptr %3, align 8
  %6 = load ptr, ptr %4, align 8
  %7 = call ptr @prefs_find_preference_with_submodule(ptr noundef %5, ptr noundef %6, ptr noundef null)
  ret ptr %7
}

; Function Attrs: null_pointer_is_valid sspstrong uwtable
define internal void @free_col_info(ptr noundef %0) #1 {
  %2 = alloca ptr, align 8
  %3 = alloca ptr, align 8
  %4 = alloca ptr, align 8
  store ptr %0, ptr %2, align 8
  call void @llvm.lifetime.start.p0(i64 8, ptr %3) #17
  call void @llvm.lifetime.start.p0(i64 8, ptr %4) #17
  %5 = load ptr, ptr %2, align 8
  store ptr %5, ptr %4, align 8
  br label %6

6:                                                ; preds = %27, %1
  %7 = load ptr, ptr %2, align 8
  %8 = icmp ne ptr %7, null
  br i1 %8, label %9, label %29

9:                                                ; preds = %6
  %10 = load ptr, ptr %2, align 8
  %11 = getelementptr inbounds nuw %struct._GList, ptr %10, i32 0, i32 0
  %12 = load ptr, ptr %11, align 8
  store ptr %12, ptr %3, align 8
  %13 = load ptr, ptr %3, align 8
  %14 = getelementptr inbounds nuw %struct._fmt_data, ptr %13, i32 0, i32 0
  %15 = load ptr, ptr %14, align 8
  call void @g_free(ptr noundef %15)
  %16 = load ptr, ptr %3, align 8
  %17 = getelementptr inbounds nuw %struct._fmt_data, ptr %16, i32 0, i32 2
  %18 = load ptr, ptr %17, align 8
  call void @g_free(ptr noundef %18)
  %19 = load ptr, ptr %3, align 8
  call void @g_free(ptr noundef %19)
  %20 = load ptr, ptr %2, align 8
  %21 = icmp ne ptr %20, null
  br i1 %21, label %22, label %26

22:                                               ; preds = %9
  %23 = load ptr, ptr %2, align 8
  %24 = getelementptr inbounds nuw %struct._GList, ptr %23, i32 0, i32 1
  %25 = load ptr, ptr %24, align 8
  br label %27

26:                                               ; preds = %9
  br label %27

27:                                               ; preds = %26, %22
  %28 = phi ptr [ %25, %22 ], [ null, %26 ]
  store ptr %28, ptr %2, align 8
  br label %6, !llvm.loop !61

29:                                               ; preds = %6
  %30 = load ptr, ptr %4, align 8
  call void @g_list_free(ptr noundef %30)
  call void @llvm.lifetime.end.p0(i64 8, ptr %4) #17
  call void @llvm.lifetime.end.p0(i64 8, ptr %3) #17
  ret void
}

; Function Attrs: null_pointer_is_valid sspstrong uwtable
define internal void @column_format_reset_cb(ptr noundef %0) #1 {
  %2 = alloca ptr, align 8
  %3 = alloca ptr, align 8
  %4 = alloca ptr, align 8
  %5 = alloca ptr, align 8
  %6 = alloca ptr, align 8
  %7 = alloca i64, align 8
  %8 = alloca i64, align 8
  %9 = alloca ptr, align 8
  %10 = alloca ptr, align 8
  store ptr %0, ptr %2, align 8
  call void @llvm.lifetime.start.p0(i64 8, ptr %3) #17
  call void @llvm.lifetime.start.p0(i64 8, ptr %4) #17
  call void @llvm.lifetime.start.p0(i64 8, ptr %5) #17
  call void @llvm.lifetime.start.p0(i64 8, ptr %6) #17
  %11 = load ptr, ptr %2, align 8
  %12 = getelementptr inbounds nuw %struct.preference, ptr %11, i32 0, i32 6
  %13 = load ptr, ptr %12, align 8
  %14 = load ptr, ptr %13, align 8
  call void @free_col_info(ptr noundef %14)
  %15 = load ptr, ptr %2, align 8
  %16 = getelementptr inbounds nuw %struct.preference, ptr %15, i32 0, i32 6
  %17 = load ptr, ptr %16, align 8
  store ptr null, ptr %17, align 8
  %18 = load ptr, ptr %2, align 8
  %19 = getelementptr inbounds nuw %struct.preference, ptr %18, i32 0, i32 8
  %20 = load ptr, ptr %19, align 8
  store ptr %20, ptr %5, align 8
  br label %21

21:                                               ; preds = %119, %1
  %22 = load ptr, ptr %5, align 8
  %23 = icmp ne ptr %22, null
  br i1 %23, label %24, label %121

24:                                               ; preds = %21
  %25 = load ptr, ptr %5, align 8
  %26 = getelementptr inbounds nuw %struct._GList, ptr %25, i32 0, i32 0
  %27 = load ptr, ptr %26, align 8
  store ptr %27, ptr %3, align 8
  call void @llvm.lifetime.start.p0(i64 8, ptr %7) #17
  store i64 1, ptr %7, align 8
  call void @llvm.lifetime.start.p0(i64 8, ptr %8) #17
  store i64 32, ptr %8, align 8
  call void @llvm.lifetime.start.p0(i64 8, ptr %9) #17
  %28 = load i64, ptr %8, align 8
  %29 = icmp eq i64 %28, 1
  br i1 %29, label %30, label %33

30:                                               ; preds = %24
  %31 = load i64, ptr %7, align 8
  %32 = call noalias ptr @g_malloc(i64 noundef %31) #20
  store ptr %32, ptr %9, align 8
  br label %54

33:                                               ; preds = %24
  %34 = load i64, ptr %7, align 8
  %35 = call i1 @llvm.is.constant.i64(i64 %34)
  br i1 %35, label %36, label %49

36:                                               ; preds = %33
  %37 = load i64, ptr %8, align 8
  %38 = icmp eq i64 %37, 0
  br i1 %38, label %44, label %39

39:                                               ; preds = %36
  %40 = load i64, ptr %7, align 8
  %41 = load i64, ptr %8, align 8
  %42 = udiv i64 -1, %41
  %43 = icmp ule i64 %40, %42
  br i1 %43, label %44, label %49

44:                                               ; preds = %39, %36
  %45 = load i64, ptr %7, align 8
  %46 = load i64, ptr %8, align 8
  %47 = mul i64 %45, %46
  %48 = call noalias ptr @g_malloc(i64 noundef %47) #20
  store ptr %48, ptr %9, align 8
  br label %53

49:                                               ; preds = %39, %33
  %50 = load i64, ptr %7, align 8
  %51 = load i64, ptr %8, align 8
  %52 = call noalias ptr @g_malloc_n(i64 noundef %50, i64 noundef %51) #21
  store ptr %52, ptr %9, align 8
  br label %53

53:                                               ; preds = %49, %44
  br label %54

54:                                               ; preds = %53, %30
  %55 = load ptr, ptr %9, align 8
  store ptr %55, ptr %10, align 8
  call void @llvm.lifetime.end.p0(i64 8, ptr %9) #17
  call void @llvm.lifetime.end.p0(i64 8, ptr %8) #17
  call void @llvm.lifetime.end.p0(i64 8, ptr %7) #17
  %56 = load ptr, ptr %10, align 8
  store ptr %56, ptr %4, align 8
  %57 = load ptr, ptr %3, align 8
  %58 = getelementptr inbounds nuw %struct._fmt_data, ptr %57, i32 0, i32 0
  %59 = load ptr, ptr %58, align 8
  %60 = call noalias ptr @g_strdup(ptr noundef %59)
  %61 = load ptr, ptr %4, align 8
  %62 = getelementptr inbounds nuw %struct._fmt_data, ptr %61, i32 0, i32 0
  store ptr %60, ptr %62, align 8
  %63 = load ptr, ptr %3, align 8
  %64 = getelementptr inbounds nuw %struct._fmt_data, ptr %63, i32 0, i32 1
  %65 = load i32, ptr %64, align 8
  %66 = load ptr, ptr %4, align 8
  %67 = getelementptr inbounds nuw %struct._fmt_data, ptr %66, i32 0, i32 1
  store i32 %65, ptr %67, align 8
  %68 = load ptr, ptr %3, align 8
  %69 = getelementptr inbounds nuw %struct._fmt_data, ptr %68, i32 0, i32 2
  %70 = load ptr, ptr %69, align 8
  %71 = icmp ne ptr %70, null
  br i1 %71, label %72, label %84

72:                                               ; preds = %54
  %73 = load ptr, ptr %3, align 8
  %74 = getelementptr inbounds nuw %struct._fmt_data, ptr %73, i32 0, i32 2
  %75 = load ptr, ptr %74, align 8
  %76 = call noalias ptr @g_strdup(ptr noundef %75)
  %77 = load ptr, ptr %4, align 8
  %78 = getelementptr inbounds nuw %struct._fmt_data, ptr %77, i32 0, i32 2
  store ptr %76, ptr %78, align 8
  %79 = load ptr, ptr %3, align 8
  %80 = getelementptr inbounds nuw %struct._fmt_data, ptr %79, i32 0, i32 3
  %81 = load i32, ptr %80, align 8
  %82 = load ptr, ptr %4, align 8
  %83 = getelementptr inbounds nuw %struct._fmt_data, ptr %82, i32 0, i32 3
  store i32 %81, ptr %83, align 8
  br label %89

84:                                               ; preds = %54
  %85 = load ptr, ptr %4, align 8
  %86 = getelementptr inbounds nuw %struct._fmt_data, ptr %85, i32 0, i32 2
  store ptr null, ptr %86, align 8
  %87 = load ptr, ptr %4, align 8
  %88 = getelementptr inbounds nuw %struct._fmt_data, ptr %87, i32 0, i32 3
  store i32 0, ptr %88, align 8
  br label %89

89:                                               ; preds = %84, %72
  %90 = load ptr, ptr %3, align 8
  %91 = getelementptr inbounds nuw %struct._fmt_data, ptr %90, i32 0, i32 4
  %92 = load i8, ptr %91, align 4, !range !6, !noundef !7
  %93 = trunc i8 %92 to i1
  %94 = load ptr, ptr %4, align 8
  %95 = getelementptr inbounds nuw %struct._fmt_data, ptr %94, i32 0, i32 4
  %96 = zext i1 %93 to i8
  store i8 %96, ptr %95, align 4
  %97 = load ptr, ptr %3, align 8
  %98 = getelementptr inbounds nuw %struct._fmt_data, ptr %97, i32 0, i32 5
  %99 = load i8, ptr %98, align 1
  %100 = load ptr, ptr %4, align 8
  %101 = getelementptr inbounds nuw %struct._fmt_data, ptr %100, i32 0, i32 5
  store i8 %99, ptr %101, align 1
  %102 = load ptr, ptr %2, align 8
  %103 = getelementptr inbounds nuw %struct.preference, ptr %102, i32 0, i32 6
  %104 = load ptr, ptr %103, align 8
  %105 = load ptr, ptr %104, align 8
  %106 = load ptr, ptr %4, align 8
  %107 = call ptr @g_list_append(ptr noundef %105, ptr noundef %106)
  %108 = load ptr, ptr %2, align 8
  %109 = getelementptr inbounds nuw %struct.preference, ptr %108, i32 0, i32 6
  %110 = load ptr, ptr %109, align 8
  store ptr %107, ptr %110, align 8
  br label %111

111:                                              ; preds = %89
  %112 = load ptr, ptr %5, align 8
  %113 = icmp ne ptr %112, null
  br i1 %113, label %114, label %118

114:                                              ; preds = %111
  %115 = load ptr, ptr %5, align 8
  %116 = getelementptr inbounds nuw %struct._GList, ptr %115, i32 0, i32 1
  %117 = load ptr, ptr %116, align 8
  br label %119

118:                                              ; preds = %111
  br label %119

119:                                              ; preds = %118, %114
  %120 = phi ptr [ %117, %114 ], [ null, %118 ]
  store ptr %120, ptr %5, align 8
  br label %21, !llvm.loop !44

121:                                              ; preds = %21
  %122 = load ptr, ptr @gui_column_module, align 8
  %123 = call ptr @prefs_find_preference(ptr noundef %122, ptr noundef @.str.134)
  store ptr %123, ptr %6, align 8
  br label %124

124:                                              ; preds = %121
  br label %125

125:                                              ; preds = %124
  br label %126

126:                                              ; preds = %125
  %127 = load ptr, ptr %6, align 8
  call void @column_num_reset_cb(ptr noundef %127)
  call void @llvm.lifetime.end.p0(i64 8, ptr %6) #17
  call void @llvm.lifetime.end.p0(i64 8, ptr %5) #17
  call void @llvm.lifetime.end.p0(i64 8, ptr %4) #17
  call void @llvm.lifetime.end.p0(i64 8, ptr %3) #17
  ret void
}