; Function Attrs: null_pointer_is_valid sspstrong uwtable
define internal void @column_format_reset_cb(ptr noundef readonly captures(none) %0) #1 {
  %2 = alloca %struct.find_pref_arg_t, align 8
  %3 = getelementptr inbounds nuw i8, ptr %0, i64 40
  %4 = load ptr, ptr %3, align 8
  %5 = load ptr, ptr %4, align 8
  %.not9.i = icmp eq ptr %5, null
  br i1 %.not9.i, label %free_col_info.exit, label %.lr.ph.i

.lr.ph.i:                                         ; preds = %1, %.lr.ph.i
  %.010.i = phi ptr [ %11, %.lr.ph.i ], [ %5, %1 ]
  %6 = load ptr, ptr %.010.i, align 8
  %7 = load ptr, ptr %6, align 8
  tail call void @g_free(ptr noundef %7)
  %8 = getelementptr inbounds nuw i8, ptr %6, i64 16
  %9 = load ptr, ptr %8, align 8
  tail call void @g_free(ptr noundef %9)
  tail call void @g_free(ptr noundef %6)
  %10 = getelementptr inbounds nuw i8, ptr %.010.i, i64 8
  %11 = load ptr, ptr %10, align 8
  %.not.i = icmp eq ptr %11, null
  br i1 %.not.i, label %free_col_info.exit, label %.lr.ph.i, !llvm.loop !8

free_col_info.exit:                               ; preds = %.lr.ph.i, %1
  tail call void @g_list_free(ptr noundef %5)
  %12 = load ptr, ptr %3, align 8
  store ptr null, ptr %12, align 8
  %13 = getelementptr inbounds nuw i8, ptr %0, i64 56
  %.040 = load ptr, ptr %13, align 8
  %.not41 = icmp eq ptr %.040, null
  br i1 %.not41, label %._crit_edge, label %.lr.ph

.lr.ph:                                           ; preds = %free_col_info.exit, %30
  %.042 = phi ptr [ %.0, %30 ], [ %.040, %free_col_info.exit ]
  %14 = load ptr, ptr %.042, align 8
  %15 = tail call noalias dereferenceable_or_null(32) ptr @g_malloc(i64 noundef 32) #28
  %16 = load ptr, ptr %14, align 8
  %17 = tail call noalias ptr @g_strdup(ptr noundef %16)
  store ptr %17, ptr %15, align 8
  %18 = getelementptr inbounds nuw i8, ptr %14, i64 8
  %19 = load i32, ptr %18, align 8
  %20 = getelementptr inbounds nuw i8, ptr %15, i64 8
  store i32 %19, ptr %20, align 8
  %21 = getelementptr inbounds nuw i8, ptr %14, i64 16
  %22 = load ptr, ptr %21, align 8
  %.not39 = icmp eq ptr %22, null
  br i1 %.not39, label %28, label %23

23:                                               ; preds = %.lr.ph
  %24 = tail call noalias ptr @g_strdup(ptr noundef nonnull %22)
  %25 = getelementptr inbounds nuw i8, ptr %15, i64 16
  store ptr %24, ptr %25, align 8
  %26 = getelementptr inbounds nuw i8, ptr %14, i64 24
  %27 = load i32, ptr %26, align 8
  br label %30

28:                                               ; preds = %.lr.ph
  %29 = getelementptr inbounds nuw i8, ptr %15, i64 16
  store ptr null, ptr %29, align 8
  br label %30

30:                                               ; preds = %28, %23
  %.sink = phi i32 [ 0, %28 ], [ %27, %23 ]
  %31 = getelementptr inbounds nuw i8, ptr %15, i64 24
  store i32 %.sink, ptr %31, align 8
  %32 = getelementptr inbounds nuw i8, ptr %14, i64 28
  %33 = load i8, ptr %32, align 4, !range !6, !noundef !7
  %34 = getelementptr inbounds nuw i8, ptr %15, i64 28
  store i8 %33, ptr %34, align 4
  %35 = getelementptr inbounds nuw i8, ptr %14, i64 29
  %36 = load i8, ptr %35, align 1
  %37 = getelementptr inbounds nuw i8, ptr %15, i64 29
  store i8 %36, ptr %37, align 1
  %38 = load ptr, ptr %3, align 8
  %39 = load ptr, ptr %38, align 8
  %40 = tail call ptr @g_list_append(ptr noundef %39, ptr noundef %15)
  %41 = load ptr, ptr %3, align 8
  store ptr %40, ptr %41, align 8
  %42 = getelementptr inbounds nuw i8, ptr %.042, i64 8
  %.0 = load ptr, ptr %42, align 8
  %.not = icmp eq ptr %.0, null
  br i1 %.not, label %._crit_edge, label %.lr.ph, !llvm.loop !50

._crit_edge:                                      ; preds = %30, %free_col_info.exit
  %43 = load ptr, ptr @gui_column_module, align 8
  call void @llvm.lifetime.start.p0(i64 24, ptr nonnull %2) #25
  %44 = icmp eq ptr %43, null
  br i1 %44, label %prefs_find_preference.exit, label %45

45:                                               ; preds = %._crit_edge
  %46 = getelementptr inbounds nuw i8, ptr %43, i64 40
  %47 = load ptr, ptr %46, align 8
  %48 = tail call ptr @g_list_find_custom(ptr noundef %47, ptr noundef nonnull @.str.134, ptr noundef nonnull @preference_match)
  %49 = getelementptr inbounds nuw i8, ptr %2, i64 16
  store ptr null, ptr %49, align 8
  %50 = icmp eq ptr %48, null
  br i1 %50, label %51, label %.thread.i.i

51:                                               ; preds = %45
  store ptr null, ptr %2, align 8
  %52 = getelementptr inbounds nuw i8, ptr %43, i64 56
  %53 = load ptr, ptr %52, align 8
  %.not.i.i = icmp eq ptr %53, null
  br i1 %.not.i.i, label %prefs_find_preference.exit, label %54

54:                                               ; preds = %51
  %55 = getelementptr inbounds nuw i8, ptr %2, i64 8
  store ptr @.str.134, ptr %55, align 8
  %56 = call zeroext i1 @wmem_tree_foreach(ptr noundef nonnull %53, ptr noundef nonnull @module_find_pref_cb, ptr noundef nonnull %2)
  %.pr.i.i = load ptr, ptr %2, align 8
  %57 = icmp eq ptr %.pr.i.i, null
  br i1 %57, label %prefs_find_preference.exit, label %.thread.i.i

.thread.i.i:                                      ; preds = %54, %45
  %.020.i.i = phi ptr [ %.pr.i.i, %54 ], [ %48, %45 ]
  %58 = load ptr, ptr %.020.i.i, align 8
  br label %prefs_find_preference.exit

prefs_find_preference.exit:                       ; preds = %._crit_edge, %51, %54, %.thread.i.i
  %.013.i.i = phi ptr [ %58, %.thread.i.i ], [ null, %._crit_edge ], [ null, %54 ], [ null, %51 ]
  call void @llvm.lifetime.end.p0(i64 24, ptr nonnull %2) #25
  %59 = getelementptr inbounds nuw i8, ptr %.013.i.i, i64 56
  %60 = load i32, ptr %59, align 8
  %61 = getelementptr inbounds nuw i8, ptr %.013.i.i, i64 40
  %62 = load ptr, ptr %61, align 8
  store i32 %60, ptr %62, align 4
  ret void
}